target datalayout = "e-m:e-p270:32:32-p271:32:32-p272:64:64-i64:64-i128:128-f80:128-n8:16:32:64-S128"
target triple = "x86_64-pc-linux-gnu"

%class.cmConditionEvaluator = type <{ ptr, %class.cmListFileBacktrace, i32, i32, i32, i32, i32, [4 x i8] }>
%class.cmListFileBacktrace = type { %class.cmConstStack }
%class.cmConstStack = type { %"class.std::shared_ptr" }
%"class.std::shared_ptr" = type { %"class.std::__shared_ptr" }
%"class.std::__shared_ptr" = type { ptr, %"class.std::__shared_count" }
%"class.std::__shared_count" = type { ptr }

; Function Attrs: mustprogress nounwind uwtable
define linkonce_odr dso_local void @_ZNSt14__shared_countILN9__gnu_cxx12_Lock_policyE2EE7_M_swapERS2_(ptr noundef nonnull align 8 dereferenceable(8) %0, ptr noundef nonnull align 8 dereferenceable(8) %1) #5 comdat align 2 {
  %3 = alloca ptr, align 8
  %4 = alloca ptr, align 8
  %5 = alloca ptr, align 8
  store ptr %0, ptr %3, align 8
  store ptr %1, ptr %4, align 8
  %6 = load ptr, ptr %3, align 8
  %7 = load ptr, ptr %4, align 8
  %8 = getelementptr inbounds %"class.std::__shared_count", ptr %7, i32 0, i32 0
  %9 = load ptr, ptr %8, align 8
  store ptr %9, ptr %5, align 8
  %10 = getelementptr inbounds %"class.std::__shared_count", ptr %6, i32 0, i32 0
  %11 = load ptr, ptr %10, align 8
  %12 = load ptr, ptr %4, align 8
  %13 = getelementptr inbounds %"class.std::__shared_count", ptr %12, i32 0, i32 0
  store ptr %11, ptr %13, align 8
  %14 = load ptr, ptr %5, align 8
  %15 = getelementptr inbounds %"class.std::__shared_count", ptr %6, i32 0, i32 0
  store ptr %14, ptr %15, align 8
  ret void
}

; Function Attrs: mustprogress nounwind uwtable
define linkonce_odr dso_local void @_ZNSt14__shared_countILN9__gnu_cxx12_Lock_policyE2EEC2Ev(ptr noundef nonnull align 8 dereferenceable(8) %0) unnamed_addr #5 comdat align 2 {
  %2 = alloca ptr, align 8
  store ptr %0, ptr %2, align 8
  %3 = load ptr, ptr %2, align 8
  %4 = getelementptr inbounds %"class.std::__shared_count", ptr %3, i32 0, i32 0
  store ptr null, ptr %4, align 8
  ret void
}

; Function Attrs: mustprogress nounwind uwtable
define linkonce_odr dso_local void @_ZNSt12__shared_ptrIKN12cmConstStackI17cmListFileContext19cmListFileBacktraceE5EntryELN9__gnu_cxx12_Lock_policyE2EEC2EOS8_(ptr noundef nonnull align 8 dereferenceable(16) %0, ptr noundef nonnull align 8 dereferenceable(16) %1) unnamed_addr #5 comdat align 2 {
  %3 = alloca ptr, align 8
  %4 = alloca ptr, align 8
  store ptr %0, ptr %3, align 8
  store ptr %1, ptr %4, align 8
  %5 = load ptr, ptr %3, align 8
  %6 = getelementptr inbounds %"class.std::__shared_ptr", ptr %5, i32 0, i32 0
  %7 = load ptr, ptr %4, align 8
  %8 = getelementptr inbounds %"class.std::__shared_ptr", ptr %7, i32 0, i32 0
  %9 = load ptr, ptr %8, align 8
  store ptr %9, ptr %6, align 8
  %10 = getelementptr inbounds %"class.std::__shared_ptr", ptr %5, i32 0, i32 1
  call void @_ZNSt14__shared_countILN9__gnu_cxx12_Lock_policyE2EEC2Ev(ptr noundef nonnull align 8 dereferenceable(8) %10) #3
  %11 = getelementptr inbounds %"class.std::__shared_ptr", ptr %5, i32 0, i32 1
  %12 = load ptr, ptr %4, align 8
  %13 = getelementptr inbounds %"class.std::__shared_ptr", ptr %12, i32 0, i32 1
  call void @_ZNSt14__shared_countILN9__gnu_cxx12_Lock_policyE2EE7_M_swapERS2_(ptr noundef nonnull align 8 dereferenceable(8) %11, ptr noundef nonnull align 8 dereferenceable(8) %13) #3
  %14 = load ptr, ptr %4, align 8
  %15 = getelementptr inbounds %"class.std::__shared_ptr", ptr %14, i32 0, i32 0
  store ptr null, ptr %15, align 8
  ret void
}

; Function Attrs: mustprogress nounwind uwtable
define linkonce_odr dso_local void @_ZNSt10shared_ptrIKN12cmConstStackI17cmListFileContext19cmListFileBacktraceE5EntryEEC2EOS6_(ptr noundef nonnull align 8 dereferenceable(16) %0, ptr noundef nonnull align 8 dereferenceable(16) %1) unnamed_addr #5 comdat align 2 {
  %3 = alloca ptr, align 8
  %4 = alloca ptr, align 8
  store ptr %0, ptr %3, align 8
  store ptr %1, ptr %4, align 8
  %5 = load ptr, ptr %3, align 8
  %6 = load ptr, ptr %4, align 8
  call void @_ZNSt12__shared_ptrIKN12cmConstStackI17cmListFileContext19cmListFileBacktraceE5EntryELN9__gnu_cxx12_Lock_policyE2EEC2EOS8_(ptr noundef nonnull align 8 dereferenceable(16) %5, ptr noundef nonnull align 8 dereferenceable(16) %6) #3
  ret void
}

; Function Attrs: mustprogress nounwind uwtable
define linkonce_odr dso_local void @_ZN12cmConstStackI17cmListFileContext19cmListFileBacktraceEC2EOS2_(ptr noundef nonnull align 8 dereferenceable(16) %0, ptr noundef nonnull align 8 dereferenceable(16) %1) unnamed_addr #5 comdat align 2 {
  %3 = alloca ptr, align 8
  %4 = alloca ptr, align 8
  store ptr %0, ptr %3, align 8
  store ptr %1, ptr %4, align 8
  %5 = load ptr, ptr %3, align 8
  %6 = getelementptr inbounds %class.cmConstStack, ptr %5, i32 0, i32 0
  %7 = load ptr, ptr %4, align 8
  %8 = getelementptr inbounds %class.cmConstStack, ptr %7, i32 0, i32 0
  call void @_ZNSt10shared_ptrIKN12cmConstStackI17cmListFileContext19cmListFileBacktraceE5EntryEEC2EOS6_(ptr noundef nonnull align 8 dereferenceable(16) %6, ptr noundef nonnull align 8 dereferenceable(16) %8) #3
  ret void
}

; Function Attrs: mustprogress nounwind uwtable
define linkonce_odr dso_local void @_ZN19cmListFileBacktraceC2EOS_(ptr noundef nonnull align 8 dereferenceable(16) %0, ptr noundef nonnull align 8 dereferenceable(16) %1) unnamed_addr #5 comdat align 2 {
  %3 = alloca ptr, align 8
  %4 = alloca ptr, align 8
  store ptr %0, ptr %3, align 8
  store ptr %1, ptr %4, align 8
  %5 = load ptr, ptr %3, align 8
  %6 = load ptr, ptr %4, align 8
  call void @_ZN12cmConstStackI17cmListFileContext19cmListFileBacktraceEC2EOS2_(ptr noundef nonnull align 8 dereferenceable(16) %5, ptr noundef nonnull align 8 dereferenceable(16) %6) #3
  ret void
}

; Function Attrs: mustprogress uwtable
define dso_local void @_ZN20cmConditionEvaluatorC2ER10cmMakefile19cmListFileBacktrace(ptr noundef nonnull align 8 dereferenceable(44) %0, ptr noundef nonnull align 8 dereferenceable(3520) %1, ptr noundef %2) unnamed_addr #4 align 2 personality ptr @__gxx_personality_v0 {
  %4 = alloca ptr, align 8
  %5 = alloca ptr, align 8
  %6 = alloca ptr, align 8
  %7 = alloca ptr, align 8
  %8 = alloca i32, align 4
  store ptr %0, ptr %4, align 8
  store ptr %1, ptr %5, align 8
  store ptr %2, ptr %6, align 8
  %9 = load ptr, ptr %4, align 8
  %10 = getelementptr inbounds %class.cmConditionEvaluator, ptr %9, i32 0, i32 0
  %11 = load ptr, ptr %5, align 8
  store ptr %11, ptr %10, align 8
  %12 = getelementptr inbounds %class.cmConditionEvaluator, ptr %9, i32 0, i32 1
  call void @_ZN19cmListFileBacktraceC2EOS_(ptr noundef nonnull align 8 dereferenceable(16) %12, ptr noundef nonnull align 8 dereferenceable(16) %2) #3
  %13 = getelementptr inbounds %class.cmConditionEvaluator, ptr %9, i32 0, i32 2
  %14 = load ptr, ptr %5, align 8
  %15 = invoke noundef i32 @_ZNK10cmMakefile15GetPolicyStatusEN10cmPolicies8PolicyIDEb(ptr noundef nonnull align 8 dereferenceable(3520) %14, i32 noundef 12, i1 noundef zeroext false)
          to label %16 unwind label %33

16:                                               ; preds = %3
  store i32 %15, ptr %13, align 8
  %17 = getelementptr inbounds %class.cmConditionEvaluator, ptr %9, i32 0, i32 3
  %18 = load ptr, ptr %5, align 8
  %19 = invoke noundef i32 @_ZNK10cmMakefile15GetPolicyStatusEN10cmPolicies8PolicyIDEb(ptr noundef nonnull align 8 dereferenceable(3520) %18, i32 noundef 54, i1 noundef zeroext false)
          to label %20 unwind label %33

20:                                               ; preds = %16
  store i32 %19, ptr %17, align 4
  %21 = getelementptr inbounds %class.cmConditionEvaluator, ptr %9, i32 0, i32 4
  %22 = load ptr, ptr %5, align 8
  %23 = invoke noundef i32 @_ZNK10cmMakefile15GetPolicyStatusEN10cmPolicies8PolicyIDEb(ptr noundef nonnull align 8 dereferenceable(3520) %22, i32 noundef 57, i1 noundef zeroext false)
          to label %24 unwind label %33

24:                                               ; preds = %20
  store i32 %23, ptr %21, align 8
  %25 = getelementptr inbounds %class.cmConditionEvaluator, ptr %9, i32 0, i32 5
  %26 = load ptr, ptr %5, align 8
  %27 = invoke noundef i32 @_ZNK10cmMakefile15GetPolicyStatusEN10cmPolicies8PolicyIDEb(ptr noundef nonnull align 8 dereferenceable(3520) %26, i32 noundef 64, i1 noundef zeroext false)
          to label %28 unwind label %33

28:                                               ; preds = %24
  store i32 %27, ptr %25, align 4
  %29 = getelementptr inbounds %class.cmConditionEvaluator, ptr %9, i32 0, i32 6
  %30 = load ptr, ptr %5, align 8
  %31 = invoke noundef i32 @_ZNK10cmMakefile15GetPolicyStatusEN10cmPolicies8PolicyIDEb(ptr noundef nonnull align 8 dereferenceable(3520) %30, i32 noundef 139, i1 noundef zeroext false)
          to label %32 unwind label %33

32:                                               ; preds = %28
  store i32 %31, ptr %29, align 8
  ret void

33:                                               ; preds = %28, %24, %20, %16, %3
  %34 = landingpad { ptr, i32 }
          cleanup
  %35 = extractvalue { ptr, i32 } %34, 0
  store ptr %35, ptr %7, align 8
  %36 = extractvalue { ptr, i32 } %34, 1
  store i32 %36, ptr %8, align 4
  call void @_ZN19cmListFileBacktraceD2Ev(ptr noundef nonnull align 8 dereferenceable(16) %12) #3
  br label %37

37:                                               ; preds = %33
  %38 = load ptr, ptr %7, align 8
  %39 = load i32, ptr %8, align 4
  %40 = insertvalue { ptr, i32 } poison, ptr %38, 0
  %41 = insertvalue { ptr, i32 } %40, i32 %39, 1
  resume { ptr, i32 } %41
}