; Function Attrs: mustprogress uwtable
define dso_local void @_ZN20cmConditionEvaluatorC2ER10cmMakefile19cmListFileBacktrace(ptr noundef nonnull align 8 dereferenceable(44) initializes((0, 24)) %0, ptr noundef nonnull align 8 dereferenceable(3520) %1, ptr noundef captures(none) %2) unnamed_addr #3 align 2 personality ptr @__gxx_personality_v0 {
  store ptr %1, ptr %0, align 8
  %4 = getelementptr inbounds nuw i8, ptr %0, i64 8
  %5 = load ptr, ptr %2, align 8
  store ptr %5, ptr %4, align 8
  %6 = getelementptr inbounds nuw i8, ptr %0, i64 16
  store ptr null, ptr %6, align 8
  %7 = getelementptr inbounds nuw i8, ptr %2, i64 8
  %8 = load ptr, ptr %7, align 8
  store ptr null, ptr %7, align 8
  store ptr %8, ptr %6, align 8
  store ptr null, ptr %2, align 8
  %9 = invoke noundef i32 @_ZNK10cmMakefile15GetPolicyStatusEN10cmPolicies8PolicyIDEb(ptr noundef nonnull align 8 dereferenceable(3520) %1, i32 noundef 12, i1 noundef zeroext false)
          to label %10 unwind label %24

10:                                               ; preds = %3
  %11 = getelementptr inbounds nuw i8, ptr %0, i64 24
  store i32 %9, ptr %11, align 8
  %12 = invoke noundef i32 @_ZNK10cmMakefile15GetPolicyStatusEN10cmPolicies8PolicyIDEb(ptr noundef nonnull align 8 dereferenceable(3520) %1, i32 noundef 54, i1 noundef zeroext false)
          to label %13 unwind label %24

13:                                               ; preds = %10
  %14 = getelementptr inbounds nuw i8, ptr %0, i64 28
  store i32 %12, ptr %14, align 4
  %15 = invoke noundef i32 @_ZNK10cmMakefile15GetPolicyStatusEN10cmPolicies8PolicyIDEb(ptr noundef nonnull align 8 dereferenceable(3520) %1, i32 noundef 57, i1 noundef zeroext false)
          to label %16 unwind label %24

16:                                               ; preds = %13
  %17 = getelementptr inbounds nuw i8, ptr %0, i64 32
  store i32 %15, ptr %17, align 8
  %18 = invoke noundef i32 @_ZNK10cmMakefile15GetPolicyStatusEN10cmPolicies8PolicyIDEb(ptr noundef nonnull align 8 dereferenceable(3520) %1, i32 noundef 64, i1 noundef zeroext false)
          to label %19 unwind label %24

19:                                               ; preds = %16
  %20 = getelementptr inbounds nuw i8, ptr %0, i64 36
  store i32 %18, ptr %20, align 4
  %21 = invoke noundef i32 @_ZNK10cmMakefile15GetPolicyStatusEN10cmPolicies8PolicyIDEb(ptr noundef nonnull align 8 dereferenceable(3520) %1, i32 noundef 139, i1 noundef zeroext false)
          to label %22 unwind label %24

22:                                               ; preds = %19
  %23 = getelementptr inbounds nuw i8, ptr %0, i64 40
  store i32 %21, ptr %23, align 8
  ret void

24:                                               ; preds = %19, %16, %13, %10, %3
  %25 = landingpad { ptr, i32 }
          cleanup
  tail call void @_ZN19cmListFileBacktraceD2Ev(ptr noundef nonnull align 8 dereferenceable(16) %4) #19
  resume { ptr, i32 } %25
}